target datalayout = "e-m:e-p270:32:32-p271:32:32-p272:64:64-i64:64-i128:128-f80:128-n8:16:32:64-S128"
target triple = "x86_64-pc-linux-gnu"

%struct.AVChannelLayout = type { i32, i32, %union.anon, ptr }
%union.anon = type { i64 }
%struct.AACPCEInfo = type { %struct.AVChannelLayout, [4 x i32], [3 x [8 x i32]], [4 x [8 x i32]], [16 x i8], [16 x i8] }
%struct.AACEncContext = type { ptr, %struct.AACEncOptions, %struct.PutBitContext, ptr, ptr, ptr, ptr, ptr, %struct.AACPCEInfo, [16 x ptr], i32, i32, [8 x i8], %struct.LPCContext, i32, i32, ptr, ptr, ptr, %struct.FFPsyContext, ptr, ptr, i32, i32, float, i32, float, i32, i32, %struct.AudioFrameQueue, [96 x i32], [1024 x float], i16, [256 x [128 x %struct.AACQuantizeBandCostCacheEntry]], %struct.AACEncDSPContext, %struct.anon.0 }
%struct.AACEncOptions = type { i32, i32, i32, i32, i32, i32 }
%struct.PutBitContext = type { i32, i32, ptr, ptr, ptr }
%struct.LPCContext = type { i32, i32, i32, ptr, ptr, ptr, ptr, [2 x %struct.LLSModel] }
%struct.LLSModel = type { [36 x [36 x double]], [32 x [32 x double]], [32 x double], i32, ptr, ptr, [8 x i8] }
%struct.FFPsyContext = type { ptr, ptr, ptr, ptr, i32, i32, ptr, ptr, i32, %struct.anon, ptr }
%struct.anon = type { i32, i32, i32 }
%struct.AudioFrameQueue = type { ptr, i32, i32, ptr, i32, i32 }
%struct.AACQuantizeBandCostCacheEntry = type { float, float, i32, i8, i8, i16 }
%struct.AACEncDSPContext = type { ptr, ptr }
%struct.anon.0 = type { ptr }
%struct.IndividualChannelStream = type { i8, [2 x i32], [2 x i8], [8 x i8], ptr, ptr, i32, i32, i32, [8 x i8], float }

@.str.44 = private unnamed_addr constant [43 x i8] c"Internal error, put_bits buffer too small\0A\00", align 1

; Function Attrs: alwaysinline nounwind willreturn memory(none) uwtable
define internal i32 @av_bswap32(i32 noundef %0) #7 {
  %2 = alloca i32, align 4
  store i32 %0, ptr %2, align 4, !tbaa !55
  %3 = load i32, ptr %2, align 4, !tbaa !55
  %4 = shl i32 %3, 8
  %5 = and i32 %4, 65280
  %6 = load i32, ptr %2, align 4, !tbaa !55
  %7 = lshr i32 %6, 8
  %8 = and i32 %7, 255
  %9 = or i32 %5, %8
  %10 = shl i32 %9, 16
  %11 = load i32, ptr %2, align 4, !tbaa !55
  %12 = lshr i32 %11, 16
  %13 = shl i32 %12, 8
  %14 = and i32 %13, 65280
  %15 = load i32, ptr %2, align 4, !tbaa !55
  %16 = lshr i32 %15, 16
  %17 = lshr i32 %16, 8
  %18 = and i32 %17, 255
  %19 = or i32 %14, %18
  %20 = or i32 %10, %19
  ret i32 %20
}

; Function Attrs: inlinehint nounwind uwtable
define internal void @put_bits_no_assert(ptr noundef %0, i32 noundef %1, i32 noundef %2) #6 {
  %4 = alloca ptr, align 8
  %5 = alloca i32, align 4
  %6 = alloca i32, align 4
  %7 = alloca i32, align 4
  %8 = alloca i32, align 4
  store ptr %0, ptr %4, align 8, !tbaa !183
  store i32 %1, ptr %5, align 4, !tbaa !55
  store i32 %2, ptr %6, align 4, !tbaa !55
  call void @llvm.lifetime.start.p0(i64 4, ptr %7) #11
  call void @llvm.lifetime.start.p0(i64 4, ptr %8) #11
  %9 = load ptr, ptr %4, align 8, !tbaa !183
  %10 = getelementptr inbounds nuw %struct.PutBitContext, ptr %9, i32 0, i32 0
  %11 = load i32, ptr %10, align 8, !tbaa !189
  store i32 %11, ptr %7, align 4, !tbaa !55
  %12 = load ptr, ptr %4, align 8, !tbaa !183
  %13 = getelementptr inbounds nuw %struct.PutBitContext, ptr %12, i32 0, i32 1
  %14 = load i32, ptr %13, align 4, !tbaa !188
  store i32 %14, ptr %8, align 4, !tbaa !55
  %15 = load i32, ptr %5, align 4, !tbaa !55
  %16 = load i32, ptr %8, align 4, !tbaa !55
  %17 = icmp slt i32 %15, %16
  br i1 %17, label %18, label %27

18:                                               ; preds = %3
  %19 = load i32, ptr %7, align 4, !tbaa !55
  %20 = load i32, ptr %5, align 4, !tbaa !55
  %21 = shl i32 %19, %20
  %22 = load i32, ptr %6, align 4, !tbaa !55
  %23 = or i32 %21, %22
  store i32 %23, ptr %7, align 4, !tbaa !55
  %24 = load i32, ptr %5, align 4, !tbaa !55
  %25 = load i32, ptr %8, align 4, !tbaa !55
  %26 = sub nsw i32 %25, %24
  store i32 %26, ptr %8, align 4, !tbaa !55
  br label %65

27:                                               ; preds = %3
  %28 = load i32, ptr %8, align 4, !tbaa !55
  %29 = load i32, ptr %7, align 4, !tbaa !55
  %30 = shl i32 %29, %28
  store i32 %30, ptr %7, align 4, !tbaa !55
  %31 = load i32, ptr %6, align 4, !tbaa !55
  %32 = load i32, ptr %5, align 4, !tbaa !55
  %33 = load i32, ptr %8, align 4, !tbaa !55
  %34 = sub nsw i32 %32, %33
  %35 = lshr i32 %31, %34
  %36 = load i32, ptr %7, align 4, !tbaa !55
  %37 = or i32 %36, %35
  store i32 %37, ptr %7, align 4, !tbaa !55
  %38 = load ptr, ptr %4, align 8, !tbaa !183
  %39 = getelementptr inbounds nuw %struct.PutBitContext, ptr %38, i32 0, i32 4
  %40 = load ptr, ptr %39, align 8, !tbaa !186
  %41 = load ptr, ptr %4, align 8, !tbaa !183
  %42 = getelementptr inbounds nuw %struct.PutBitContext, ptr %41, i32 0, i32 3
  %43 = load ptr, ptr %42, align 8, !tbaa !187
  %44 = ptrtoint ptr %40 to i64
  %45 = ptrtoint ptr %43 to i64
  %46 = sub i64 %44, %45
  %47 = icmp uge i64 %46, 4
  br i1 %47, label %48, label %58

48:                                               ; preds = %27
  %49 = load i32, ptr %7, align 4, !tbaa !55
  %50 = call i32 @av_bswap32(i32 noundef %49) #13
  %51 = load ptr, ptr %4, align 8, !tbaa !183
  %52 = getelementptr inbounds nuw %struct.PutBitContext, ptr %51, i32 0, i32 3
  %53 = load ptr, ptr %52, align 8, !tbaa !187
  store i32 %50, ptr %53, align 1, !tbaa !69
  %54 = load ptr, ptr %4, align 8, !tbaa !183
  %55 = getelementptr inbounds nuw %struct.PutBitContext, ptr %54, i32 0, i32 3
  %56 = load ptr, ptr %55, align 8, !tbaa !187
  %57 = getelementptr inbounds nuw i8, ptr %56, i64 4
  store ptr %57, ptr %55, align 8, !tbaa !187
  br label %59

58:                                               ; preds = %27
  call void (ptr, i32, ptr, ...) @av_log(ptr noundef null, i32 noundef 16, ptr noundef @.str.44)
  br label %59

59:                                               ; preds = %58, %48
  %60 = load i32, ptr %5, align 4, !tbaa !55
  %61 = sub nsw i32 32, %60
  %62 = load i32, ptr %8, align 4, !tbaa !55
  %63 = add nsw i32 %62, %61
  store i32 %63, ptr %8, align 4, !tbaa !55
  %64 = load i32, ptr %6, align 4, !tbaa !55
  store i32 %64, ptr %7, align 4, !tbaa !55
  br label %65

65:                                               ; preds = %59, %18
  %66 = load i32, ptr %7, align 4, !tbaa !55
  %67 = load ptr, ptr %4, align 8, !tbaa !183
  %68 = getelementptr inbounds nuw %struct.PutBitContext, ptr %67, i32 0, i32 0
  store i32 %66, ptr %68, align 8, !tbaa !189
  %69 = load i32, ptr %8, align 4, !tbaa !55
  %70 = load ptr, ptr %4, align 8, !tbaa !183
  %71 = getelementptr inbounds nuw %struct.PutBitContext, ptr %70, i32 0, i32 1
  store i32 %69, ptr %71, align 4, !tbaa !188
  call void @llvm.lifetime.end.p0(i64 4, ptr %8) #11
  call void @llvm.lifetime.end.p0(i64 4, ptr %7) #11
  ret void
}

; Function Attrs: inlinehint nounwind uwtable
define internal void @put_bits(ptr noundef %0, i32 noundef %1, i32 noundef %2) #6 {
  %4 = alloca ptr, align 8
  %5 = alloca i32, align 4
  %6 = alloca i32, align 4
  store ptr %0, ptr %4, align 8, !tbaa !183
  store i32 %1, ptr %5, align 4, !tbaa !55
  store i32 %2, ptr %6, align 4, !tbaa !55
  %7 = load ptr, ptr %4, align 8, !tbaa !183
  %8 = load i32, ptr %5, align 4, !tbaa !55
  %9 = load i32, ptr %6, align 4, !tbaa !55
  call void @put_bits_no_assert(ptr noundef %7, i32 noundef %8, i32 noundef %9)
  ret void
}

; Function Attrs: nounwind uwtable
define internal void @put_ics_info(ptr noundef %0, ptr noundef %1) #0 {
  %3 = alloca ptr, align 8
  %4 = alloca ptr, align 8
  %5 = alloca i32, align 4
  store ptr %0, ptr %3, align 8, !tbaa !4
  store ptr %1, ptr %4, align 8, !tbaa !105
  call void @llvm.lifetime.start.p0(i64 4, ptr %5) #11
  %6 = load ptr, ptr %3, align 8, !tbaa !4
  %7 = getelementptr inbounds nuw %struct.AACEncContext, ptr %6, i32 0, i32 2
  call void @put_bits(ptr noundef %7, i32 noundef 1, i32 noundef 0)
  %8 = load ptr, ptr %3, align 8, !tbaa !4
  %9 = getelementptr inbounds nuw %struct.AACEncContext, ptr %8, i32 0, i32 2
  %10 = load ptr, ptr %4, align 8, !tbaa !105
  %11 = getelementptr inbounds nuw %struct.IndividualChannelStream, ptr %10, i32 0, i32 1
  %12 = getelementptr inbounds [2 x i32], ptr %11, i64 0, i64 0
  %13 = load i32, ptr %12, align 4, !tbaa !55
  call void @put_bits(ptr noundef %9, i32 noundef 2, i32 noundef %13)
  %14 = load ptr, ptr %3, align 8, !tbaa !4
  %15 = getelementptr inbounds nuw %struct.AACEncContext, ptr %14, i32 0, i32 2
  %16 = load ptr, ptr %4, align 8, !tbaa !105
  %17 = getelementptr inbounds nuw %struct.IndividualChannelStream, ptr %16, i32 0, i32 2
  %18 = getelementptr inbounds [2 x i8], ptr %17, i64 0, i64 0
  %19 = load i8, ptr %18, align 4, !tbaa !69
  %20 = zext i8 %19 to i32
  call void @put_bits(ptr noundef %15, i32 noundef 1, i32 noundef %20)
  %21 = load ptr, ptr %4, align 8, !tbaa !105
  %22 = getelementptr inbounds nuw %struct.IndividualChannelStream, ptr %21, i32 0, i32 1
  %23 = getelementptr inbounds [2 x i32], ptr %22, i64 0, i64 0
  %24 = load i32, ptr %23, align 4, !tbaa !55
  %25 = icmp ne i32 %24, 2
  br i1 %25, label %26, label %35

26:                                               ; preds = %2
  %27 = load ptr, ptr %3, align 8, !tbaa !4
  %28 = getelementptr inbounds nuw %struct.AACEncContext, ptr %27, i32 0, i32 2
  %29 = load ptr, ptr %4, align 8, !tbaa !105
  %30 = getelementptr inbounds nuw %struct.IndividualChannelStream, ptr %29, i32 0, i32 0
  %31 = load i8, ptr %30, align 8, !tbaa !123
  %32 = zext i8 %31 to i32
  call void @put_bits(ptr noundef %28, i32 noundef 6, i32 noundef %32)
  %33 = load ptr, ptr %3, align 8, !tbaa !4
  %34 = getelementptr inbounds nuw %struct.AACEncContext, ptr %33, i32 0, i32 2
  call void @put_bits(ptr noundef %34, i32 noundef 1, i32 noundef 0)
  br label %61

35:                                               ; preds = %2
  %36 = load ptr, ptr %3, align 8, !tbaa !4
  %37 = getelementptr inbounds nuw %struct.AACEncContext, ptr %36, i32 0, i32 2
  %38 = load ptr, ptr %4, align 8, !tbaa !105
  %39 = getelementptr inbounds nuw %struct.IndividualChannelStream, ptr %38, i32 0, i32 0
  %40 = load i8, ptr %39, align 8, !tbaa !123
  %41 = zext i8 %40 to i32
  call void @put_bits(ptr noundef %37, i32 noundef 4, i32 noundef %41)
  store i32 1, ptr %5, align 4, !tbaa !55
  br label %42

42:                                               ; preds = %57, %35
  %43 = load i32, ptr %5, align 4, !tbaa !55
  %44 = icmp slt i32 %43, 8
  br i1 %44, label %45, label %60

45:                                               ; preds = %42
  %46 = load ptr, ptr %3, align 8, !tbaa !4
  %47 = getelementptr inbounds nuw %struct.AACEncContext, ptr %46, i32 0, i32 2
  %48 = load ptr, ptr %4, align 8, !tbaa !105
  %49 = getelementptr inbounds nuw %struct.IndividualChannelStream, ptr %48, i32 0, i32 3
  %50 = load i32, ptr %5, align 4, !tbaa !55
  %51 = sext i32 %50 to i64
  %52 = getelementptr inbounds [8 x i8], ptr %49, i64 0, i64 %51
  %53 = load i8, ptr %52, align 1, !tbaa !69
  %54 = icmp ne i8 %53, 0
  %55 = xor i1 %54, true
  %56 = zext i1 %55 to i32
  call void @put_bits(ptr noundef %47, i32 noundef 1, i32 noundef %56)
  br label %57

57:                                               ; preds = %45
  %58 = load i32, ptr %5, align 4, !tbaa !55
  %59 = add nsw i32 %58, 1
  store i32 %59, ptr %5, align 4, !tbaa !55
  br label %42, !llvm.loop !233

60:                                               ; preds = %42
  br label %61

61:                                               ; preds = %60, %26
  call void @llvm.lifetime.end.p0(i64 4, ptr %5) #11
  ret void
}