; Function Attrs: nounwind uwtable
define internal fastcc void @put_ics_info(ptr noundef captures(none) %0, ptr noundef readonly captures(none) %1) unnamed_addr #3 {
  %3 = getelementptr inbounds nuw i8, ptr %0, i64 32
  %4 = load i32, ptr %3, align 8, !tbaa !151
  %5 = getelementptr inbounds nuw i8, ptr %0, i64 36
  %6 = load i32, ptr %5, align 4, !tbaa !150
  %7 = icmp sgt i32 %6, 1
  br i1 %7, label %8, label %10

8:                                                ; preds = %2
  %9 = shl i32 %4, 1
  br label %put_bits.exit

10:                                               ; preds = %2
  %11 = getelementptr inbounds nuw i8, ptr %0, i64 56
  %12 = load ptr, ptr %11, align 8, !tbaa !148
  %13 = getelementptr inbounds nuw i8, ptr %0, i64 48
  %14 = load ptr, ptr %13, align 8, !tbaa !149
  %15 = ptrtoint ptr %12 to i64
  %16 = ptrtoint ptr %14 to i64
  %17 = sub i64 %15, %16
  %18 = icmp ugt i64 %17, 3
  br i1 %18, label %19, label %24

19:                                               ; preds = %10
  %20 = shl i32 %4, %6
  %21 = tail call i32 @llvm.bswap.i32(i32 %20)
  store i32 %21, ptr %14, align 1, !tbaa !66
  %22 = load ptr, ptr %13, align 8, !tbaa !149
  %23 = getelementptr inbounds nuw i8, ptr %22, i64 4
  store ptr %23, ptr %13, align 8, !tbaa !149
  br label %put_bits.exit

24:                                               ; preds = %10
  tail call void (ptr, i32, ptr, ...) @av_log(ptr noundef null, i32 noundef 16, ptr noundef nonnull @.str.44) #11
  br label %put_bits.exit

put_bits.exit:                                    ; preds = %19, %24, %8
  %.sink = phi i32 [ -1, %8 ], [ 31, %24 ], [ 31, %19 ]
  %.026.i.i = phi i32 [ %9, %8 ], [ 0, %24 ], [ 0, %19 ]
  %25 = add nsw i32 %6, %.sink
  store i32 %.026.i.i, ptr %3, align 8, !tbaa !151
  store i32 %25, ptr %5, align 4, !tbaa !150
  %26 = getelementptr inbounds nuw i8, ptr %1, i64 4
  %27 = load i32, ptr %26, align 4, !tbaa !65
  %28 = icmp sgt i32 %25, 2
  br i1 %28, label %29, label %32

29:                                               ; preds = %put_bits.exit
  %30 = shl i32 %.026.i.i, 2
  %31 = or i32 %27, %30
  br label %put_bits.exit19

32:                                               ; preds = %put_bits.exit
  %33 = getelementptr inbounds nuw i8, ptr %0, i64 56
  %34 = load ptr, ptr %33, align 8, !tbaa !148
  %35 = getelementptr inbounds nuw i8, ptr %0, i64 48
  %36 = load ptr, ptr %35, align 8, !tbaa !149
  %37 = ptrtoint ptr %34 to i64
  %38 = ptrtoint ptr %36 to i64
  %39 = sub i64 %37, %38
  %40 = icmp ugt i64 %39, 3
  br i1 %40, label %41, label %49

41:                                               ; preds = %32
  %42 = shl i32 %.026.i.i, %25
  %43 = sub nsw i32 2, %25
  %44 = lshr i32 %27, %43
  %45 = or i32 %44, %42
  %46 = tail call i32 @llvm.bswap.i32(i32 %45)
  store i32 %46, ptr %36, align 1, !tbaa !66
  %47 = load ptr, ptr %35, align 8, !tbaa !149
  %48 = getelementptr inbounds nuw i8, ptr %47, i64 4
  store ptr %48, ptr %35, align 8, !tbaa !149
  br label %put_bits.exit19

49:                                               ; preds = %32
  tail call void (ptr, i32, ptr, ...) @av_log(ptr noundef null, i32 noundef 16, ptr noundef nonnull @.str.44) #11
  br label %put_bits.exit19

put_bits.exit19:                                  ; preds = %41, %49, %29
  %.sink42 = phi i32 [ -2, %29 ], [ 30, %49 ], [ 30, %41 ]
  %.026.i.i17 = phi i32 [ %31, %29 ], [ %27, %49 ], [ %27, %41 ]
  %50 = add nsw i32 %25, %.sink42
  store i32 %.026.i.i17, ptr %3, align 8, !tbaa !151
  store i32 %50, ptr %5, align 4, !tbaa !150
  %51 = getelementptr inbounds nuw i8, ptr %1, i64 12
  %52 = load i8, ptr %51, align 4, !tbaa !66
  %53 = zext i8 %52 to i32
  %54 = icmp sgt i32 %50, 1
  br i1 %54, label %55, label %58

55:                                               ; preds = %put_bits.exit19
  %56 = shl i32 %.026.i.i17, 1
  %57 = or i32 %56, %53
  br label %put_bits.exit23

58:                                               ; preds = %put_bits.exit19
  %59 = getelementptr inbounds nuw i8, ptr %0, i64 56
  %60 = load ptr, ptr %59, align 8, !tbaa !148
  %61 = getelementptr inbounds nuw i8, ptr %0, i64 48
  %62 = load ptr, ptr %61, align 8, !tbaa !149
  %63 = ptrtoint ptr %60 to i64
  %64 = ptrtoint ptr %62 to i64
  %65 = sub i64 %63, %64
  %66 = icmp ugt i64 %65, 3
  br i1 %66, label %67, label %75

67:                                               ; preds = %58
  %68 = shl i32 %.026.i.i17, %50
  %69 = sub nsw i32 1, %50
  %70 = lshr i32 %53, %69
  %71 = or i32 %70, %68
  %72 = tail call i32 @llvm.bswap.i32(i32 %71)
  store i32 %72, ptr %62, align 1, !tbaa !66
  %73 = load ptr, ptr %61, align 8, !tbaa !149
  %74 = getelementptr inbounds nuw i8, ptr %73, i64 4
  store ptr %74, ptr %61, align 8, !tbaa !149
  br label %put_bits.exit23

75:                                               ; preds = %58
  tail call void (ptr, i32, ptr, ...) @av_log(ptr noundef null, i32 noundef 16, ptr noundef nonnull @.str.44) #11
  br label %put_bits.exit23

put_bits.exit23:                                  ; preds = %67, %75, %55
  %.sink43 = phi i32 [ -1, %55 ], [ 31, %75 ], [ 31, %67 ]
  %.026.i.i21 = phi i32 [ %57, %55 ], [ %53, %75 ], [ %53, %67 ]
  %76 = add nsw i32 %50, %.sink43
  store i32 %.026.i.i21, ptr %3, align 8, !tbaa !151
  store i32 %76, ptr %5, align 4, !tbaa !150
  %77 = load i32, ptr %26, align 4, !tbaa !65
  %.not = icmp eq i32 %77, 2
  %78 = load i8, ptr %1, align 8, !tbaa !116
  %79 = zext i8 %78 to i32
  br i1 %.not, label %123, label %80

80:                                               ; preds = %put_bits.exit23
  %81 = icmp sgt i32 %76, 6
  br i1 %81, label %82, label %85

82:                                               ; preds = %80
  %83 = shl i32 %.026.i.i21, 6
  %84 = or i32 %83, %79
  br label %put_bits.exit27

85:                                               ; preds = %80
  %86 = getelementptr inbounds nuw i8, ptr %0, i64 56
  %87 = load ptr, ptr %86, align 8, !tbaa !148
  %88 = getelementptr inbounds nuw i8, ptr %0, i64 48
  %89 = load ptr, ptr %88, align 8, !tbaa !149
  %90 = ptrtoint ptr %87 to i64
  %91 = ptrtoint ptr %89 to i64
  %92 = sub i64 %90, %91
  %93 = icmp ugt i64 %92, 3
  br i1 %93, label %94, label %102

94:                                               ; preds = %85
  %95 = shl i32 %.026.i.i21, %76
  %96 = sub nsw i32 6, %76
  %97 = lshr i32 %79, %96
  %98 = or i32 %97, %95
  %99 = tail call i32 @llvm.bswap.i32(i32 %98)
  store i32 %99, ptr %89, align 1, !tbaa !66
  %100 = load ptr, ptr %88, align 8, !tbaa !149
  %101 = getelementptr inbounds nuw i8, ptr %100, i64 4
  store ptr %101, ptr %88, align 8, !tbaa !149
  br label %put_bits.exit27

102:                                              ; preds = %85
  tail call void (ptr, i32, ptr, ...) @av_log(ptr noundef null, i32 noundef 16, ptr noundef nonnull @.str.44) #11
  br label %put_bits.exit27

put_bits.exit27:                                  ; preds = %94, %102, %82
  %.sink44 = phi i32 [ -6, %82 ], [ 26, %102 ], [ 26, %94 ]
  %.026.i.i25 = phi i32 [ %84, %82 ], [ %79, %102 ], [ %79, %94 ]
  %103 = add nsw i32 %76, %.sink44
  store i32 %.026.i.i25, ptr %3, align 8, !tbaa !151
  store i32 %103, ptr %5, align 4, !tbaa !150
  %104 = icmp sgt i32 %103, 1
  br i1 %104, label %105, label %107

105:                                              ; preds = %put_bits.exit27
  %106 = shl i32 %.026.i.i25, 1
  br label %put_bits.exit31

107:                                              ; preds = %put_bits.exit27
  %108 = getelementptr inbounds nuw i8, ptr %0, i64 56
  %109 = load ptr, ptr %108, align 8, !tbaa !148
  %110 = getelementptr inbounds nuw i8, ptr %0, i64 48
  %111 = load ptr, ptr %110, align 8, !tbaa !149
  %112 = ptrtoint ptr %109 to i64
  %113 = ptrtoint ptr %111 to i64
  %114 = sub i64 %112, %113
  %115 = icmp ugt i64 %114, 3
  br i1 %115, label %116, label %121

116:                                              ; preds = %107
  %117 = shl i32 %.026.i.i25, %103
  %118 = tail call i32 @llvm.bswap.i32(i32 %117)
  store i32 %118, ptr %111, align 1, !tbaa !66
  %119 = load ptr, ptr %110, align 8, !tbaa !149
  %120 = getelementptr inbounds nuw i8, ptr %119, i64 4
  store ptr %120, ptr %110, align 8, !tbaa !149
  br label %put_bits.exit31

121:                                              ; preds = %107
  tail call void (ptr, i32, ptr, ...) @av_log(ptr noundef null, i32 noundef 16, ptr noundef nonnull @.str.44) #11
  br label %put_bits.exit31

put_bits.exit31:                                  ; preds = %116, %121, %105
  %.sink45 = phi i32 [ -1, %105 ], [ 31, %121 ], [ 31, %116 ]
  %.026.i.i29 = phi i32 [ %106, %105 ], [ 0, %121 ], [ 0, %116 ]
  %122 = add nsw i32 %103, %.sink45
  store i32 %.026.i.i29, ptr %3, align 8, !tbaa !151
  store i32 %122, ptr %5, align 4, !tbaa !150
  br label %.loopexit

123:                                              ; preds = %put_bits.exit23
  %124 = icmp sgt i32 %76, 4
  br i1 %124, label %125, label %128

125:                                              ; preds = %123
  %126 = shl i32 %.026.i.i21, 4
  %127 = or i32 %126, %79
  br label %put_bits.exit35

128:                                              ; preds = %123
  %129 = getelementptr inbounds nuw i8, ptr %0, i64 56
  %130 = load ptr, ptr %129, align 8, !tbaa !148
  %131 = getelementptr inbounds nuw i8, ptr %0, i64 48
  %132 = load ptr, ptr %131, align 8, !tbaa !149
  %133 = ptrtoint ptr %130 to i64
  %134 = ptrtoint ptr %132 to i64
  %135 = sub i64 %133, %134
  %136 = icmp ugt i64 %135, 3
  br i1 %136, label %137, label %145

137:                                              ; preds = %128
  %138 = shl i32 %.026.i.i21, %76
  %139 = sub nsw i32 4, %76
  %140 = lshr i32 %79, %139
  %141 = or i32 %140, %138
  %142 = tail call i32 @llvm.bswap.i32(i32 %141)
  store i32 %142, ptr %132, align 1, !tbaa !66
  %143 = load ptr, ptr %131, align 8, !tbaa !149
  %144 = getelementptr inbounds nuw i8, ptr %143, i64 4
  store ptr %144, ptr %131, align 8, !tbaa !149
  br label %put_bits.exit35

145:                                              ; preds = %128
  tail call void (ptr, i32, ptr, ...) @av_log(ptr noundef null, i32 noundef 16, ptr noundef nonnull @.str.44) #11
  br label %put_bits.exit35

put_bits.exit35:                                  ; preds = %137, %145, %125
  %.sink46 = phi i32 [ -4, %125 ], [ 28, %145 ], [ 28, %137 ]
  %.026.i.i33 = phi i32 [ %127, %125 ], [ %79, %145 ], [ %79, %137 ]
  %146 = add nsw i32 %76, %.sink46
  store i32 %.026.i.i33, ptr %3, align 8, !tbaa !151
  store i32 %146, ptr %5, align 4, !tbaa !150
  %147 = getelementptr inbounds nuw i8, ptr %1, i64 14
  %148 = getelementptr inbounds nuw i8, ptr %0, i64 56
  %149 = getelementptr inbounds nuw i8, ptr %0, i64 48
  br label %150

150:                                              ; preds = %put_bits.exit35, %put_bits.exit39
  %151 = phi i32 [ %146, %put_bits.exit35 ], [ %176, %put_bits.exit39 ]
  %152 = phi i32 [ %.026.i.i33, %put_bits.exit35 ], [ %.026.i.i37, %put_bits.exit39 ]
  %indvars.iv = phi i64 [ 1, %put_bits.exit35 ], [ %indvars.iv.next, %put_bits.exit39 ]
  %153 = getelementptr inbounds nuw [8 x i8], ptr %147, i64 0, i64 %indvars.iv
  %154 = load i8, ptr %153, align 1, !tbaa !66
  %.not15 = icmp eq i8 %154, 0
  %155 = zext i1 %.not15 to i32
  %156 = icmp sgt i32 %151, 1
  br i1 %156, label %157, label %160

157:                                              ; preds = %150
  %158 = shl i32 %152, 1
  %159 = or disjoint i32 %158, %155
  br label %put_bits.exit39

160:                                              ; preds = %150
  %161 = load ptr, ptr %148, align 8, !tbaa !148
  %162 = load ptr, ptr %149, align 8, !tbaa !149
  %163 = ptrtoint ptr %161 to i64
  %164 = ptrtoint ptr %162 to i64
  %165 = sub i64 %163, %164
  %166 = icmp ugt i64 %165, 3
  br i1 %166, label %167, label %175

167:                                              ; preds = %160
  %168 = shl i32 %152, %151
  %169 = sub nsw i32 1, %151
  %170 = lshr i32 %155, %169
  %171 = or i32 %170, %168
  %172 = tail call i32 @llvm.bswap.i32(i32 %171)
  store i32 %172, ptr %162, align 1, !tbaa !66
  %173 = load ptr, ptr %149, align 8, !tbaa !149
  %174 = getelementptr inbounds nuw i8, ptr %173, i64 4
  store ptr %174, ptr %149, align 8, !tbaa !149
  br label %put_bits.exit39

175:                                              ; preds = %160
  tail call void (ptr, i32, ptr, ...) @av_log(ptr noundef null, i32 noundef 16, ptr noundef nonnull @.str.44) #11
  br label %put_bits.exit39

put_bits.exit39:                                  ; preds = %167, %175, %157
  %.sink47 = phi i32 [ -1, %157 ], [ 31, %175 ], [ 31, %167 ]
  %.026.i.i37 = phi i32 [ %159, %157 ], [ %155, %175 ], [ %155, %167 ]
  %176 = add nsw i32 %151, %.sink47
  store i32 %.026.i.i37, ptr %3, align 8, !tbaa !151
  store i32 %176, ptr %5, align 4, !tbaa !150
  %indvars.iv.next = add nuw nsw i64 %indvars.iv, 1
  %exitcond.not = icmp eq i64 %indvars.iv.next, 8
  br i1 %exitcond.not, label %.loopexit, label %150, !llvm.loop !226

.loopexit:                                        ; preds = %put_bits.exit39, %put_bits.exit31
  ret void
}